; Function Attrs: nounwind uwtable
define i32 @idaLsATimes(ptr noundef %0, ptr noundef %1, ptr noundef %2) #0 {
  %4 = icmp eq ptr %0, null
  br i1 %4, label %5, label %6

5:                                                ; preds = %3
  tail call void (ptr, i32, i32, ptr, ptr, ptr, ...) @IDAProcessError(ptr noundef null, i32 noundef -1, i32 noundef 1766, ptr noundef nonnull @__func__.idaLsATimes, ptr noundef nonnull @.str, ptr noundef nonnull @.str.1) #13
  br label %idaLs_AccessLMem.exit.thread

6:                                                ; preds = %3
  %7 = getelementptr inbounds nuw i8, ptr %0, i64 1048
  %8 = load ptr, ptr %7, align 8, !tbaa !65
  %9 = icmp eq ptr %8, null
  br i1 %9, label %10, label %idaLs_AccessLMem.exit

10:                                               ; preds = %6
  tail call void (ptr, i32, i32, ptr, ptr, ptr, ...) @IDAProcessError(ptr noundef nonnull %0, i32 noundef -2, i32 noundef 1773, ptr noundef nonnull @__func__.idaLsATimes, ptr noundef nonnull @.str, ptr noundef nonnull @.str.30) #13
  br label %idaLs_AccessLMem.exit.thread

idaLs_AccessLMem.exit:                            ; preds = %6
  %11 = getelementptr inbounds nuw i8, ptr %8, i64 304
  %12 = load ptr, ptr %11, align 8, !tbaa !49
  %13 = getelementptr inbounds nuw i8, ptr %0, i64 680
  %14 = load double, ptr %13, align 8, !tbaa !77
  %15 = getelementptr inbounds nuw i8, ptr %8, i64 72
  %16 = load ptr, ptr %15, align 8, !tbaa !72
  %17 = getelementptr inbounds nuw i8, ptr %8, i64 80
  %18 = load ptr, ptr %17, align 8, !tbaa !73
  %19 = getelementptr inbounds nuw i8, ptr %8, i64 88
  %20 = load ptr, ptr %19, align 8, !tbaa !74
  %21 = getelementptr inbounds nuw i8, ptr %0, i64 696
  %22 = load double, ptr %21, align 8, !tbaa !80
  %23 = getelementptr inbounds nuw i8, ptr %8, i64 320
  %24 = load ptr, ptr %23, align 8, !tbaa !52
  %25 = getelementptr inbounds nuw i8, ptr %8, i64 48
  %26 = load ptr, ptr %25, align 8, !tbaa !59
  %27 = getelementptr inbounds nuw i8, ptr %8, i64 56
  %28 = load ptr, ptr %27, align 8, !tbaa !60
  %29 = tail call i32 %12(double noundef %14, ptr noundef %16, ptr noundef %18, ptr noundef %20, ptr noundef %1, ptr noundef %2, double noundef %22, ptr noundef %24, ptr noundef %26, ptr noundef %28) #13
  %30 = getelementptr inbounds nuw i8, ptr %8, i64 184
  %31 = load i64, ptr %30, align 8, !tbaa !103
  %32 = add nsw i64 %31, 1
  store i64 %32, ptr %30, align 8, !tbaa !103
  br label %idaLs_AccessLMem.exit.thread

idaLs_AccessLMem.exit.thread:                     ; preds = %10, %5, %idaLs_AccessLMem.exit
  %.0 = phi i32 [ %29, %idaLs_AccessLMem.exit ], [ -2, %10 ], [ -1, %5 ]
  ret i32 %.0
}